; Function Attrs: mustprogress uwtable
define noundef zeroext i1 @_ZN3zmq13zmtp_engine_t14handshake_v3_1Ev(ptr noundef nonnull align 8 dereferenceable(1976) %this) #0 align 2 personality ptr @__gxx_personality_v0 {
entry:
  %call = tail call noalias noundef dereferenceable_or_null(96) ptr @_ZnwmRKSt9nothrow_t(i64 noundef 96, ptr noundef nonnull align 1 dereferenceable(1) @_ZSt7nothrow) #21
  %new.isnull = icmp eq ptr %call, null
  br i1 %new.isnull, label %if.then, label %new.notnull

new.notnull:                                      ; preds = %entry
  %out_batch_size = getelementptr inbounds i8, ptr %this, i64 1024
  %0 = load i32, ptr %out_batch_size, align 8
  %conv = sext i32 %0 to i64
  invoke void @_ZN3zmq14v3_1_encoder_tC1Em(ptr noundef nonnull align 8 dereferenceable(96) %call, i64 noundef %conv)
          to label %new.cont unwind label %lpad

new.cont:                                         ; preds = %new.notnull
  %_encoder = getelementptr inbounds i8, ptr %this, i64 1400
  store ptr %call, ptr %_encoder, align 8
  br label %do.end

if.then:                                          ; preds = %entry
  %_encoder2 = getelementptr inbounds i8, ptr %this, i64 1400
  store ptr null, ptr %_encoder2, align 8
  %1 = load ptr, ptr @stderr, align 8
  %call4 = tail call i32 (ptr, ptr, ...) @fprintf(ptr noundef %1, ptr noundef nonnull @.str.9, ptr noundef nonnull @.str.1, i32 noundef 398) #18
  %2 = load ptr, ptr @stderr, align 8
  %call5 = tail call i32 @fflush(ptr noundef %2)
  tail call void @_ZN3zmq9zmq_abortEPKc(ptr noundef nonnull @.str.10)
  br label %do.end

lpad:                                             ; preds = %new.notnull
  %3 = landingpad { ptr, i32 }
          cleanup
  br label %eh.resume

do.end:                                           ; preds = %new.cont, %if.then
  %call6 = tail call noalias noundef dereferenceable_or_null(184) ptr @_ZnwmRKSt9nothrow_t(i64 noundef 184, ptr noundef nonnull align 1 dereferenceable(1) @_ZSt7nothrow) #21
  %new.isnull7 = icmp eq ptr %call6, null
  br i1 %new.isnull7, label %if.then26, label %new.notnull8

new.notnull8:                                     ; preds = %do.end
  %in_batch_size = getelementptr inbounds i8, ptr %this, i64 1020
  %4 = load i32, ptr %in_batch_size, align 4
  %conv11 = sext i32 %4 to i64
  %maxmsgsize = getelementptr inbounds i8, ptr %this, i64 368
  %5 = load i64, ptr %maxmsgsize, align 8
  %zero_copy = getelementptr inbounds i8, ptr %this, i64 1028
  %6 = load i8, ptr %zero_copy, align 4
  %7 = and i8 %6, 1
  %tobool14 = icmp ne i8 %7, 0
  invoke void @_ZN3zmq12v2_decoder_tC1Emlb(ptr noundef nonnull align 8 dereferenceable(184) %call6, i64 noundef %conv11, i64 noundef %5, i1 noundef zeroext %tobool14)
          to label %new.cont20 unwind label %lpad15

new.cont20:                                       ; preds = %new.notnull8
  %_decoder = getelementptr inbounds i8, ptr %this, i64 1376
  store ptr %call6, ptr %_decoder, align 8
  br label %do.end30

if.then26:                                        ; preds = %do.end
  %_decoder4 = getelementptr inbounds i8, ptr %this, i64 1376
  store ptr null, ptr %_decoder4, align 8
  %8 = load ptr, ptr @stderr, align 8
  %call27 = tail call i32 (ptr, ptr, ...) @fprintf(ptr noundef %8, ptr noundef nonnull @.str.9, ptr noundef nonnull @.str.1, i32 noundef 402) #18
  %9 = load ptr, ptr @stderr, align 8
  %call28 = tail call i32 @fflush(ptr noundef %9)
  tail call void @_ZN3zmq9zmq_abortEPKc(ptr noundef nonnull @.str.10)
  br label %do.end30

lpad15:                                           ; preds = %new.notnull8
  %10 = landingpad { ptr, i32 }
          cleanup
  br label %eh.resume

do.end30:                                         ; preds = %new.cont20, %if.then26
  %call31 = tail call noundef zeroext i1 @_ZN3zmq13zmtp_engine_t14handshake_v3_xEb(ptr noundef nonnull align 8 dereferenceable(1976) %this, i1 zeroext poison)
  ret i1 %call31

eh.resume:                                        ; preds = %lpad15, %lpad
  %call6.sink = phi ptr [ %call6, %lpad15 ], [ %call, %lpad ]
  %.pn = phi { ptr, i32 } [ %10, %lpad15 ], [ %3, %lpad ]
  tail call void @_ZdlPvRKSt9nothrow_t(ptr noundef nonnull %call6.sink, ptr noundef nonnull align 1 dereferenceable(1) @_ZSt7nothrow) #20
  resume { ptr, i32 } %.pn
}